(dp1
S'desctypes'
p2
(dp3
sS'terms'
p4
(dp5
Vpluggabl
p6
I3
sVcode
p7
(lp8
I0
aI1
aI2
aI3
asVforget
p9
I0
sVdollar
p10
I0
sVall
p11
(lp12
I0
aI1
aI2
aI3
asVconcept
p13
I3
sVfollow
p14
(lp15
I0
aI1
asVrow
p16
I1
sVcontent
p17
(lp18
I1
aI2
aI4
asVdepend
p19
I0
sVdecim
p20
I0
sVprogram
p21
I3
sVhasattr
p22
I0
sVunder
p23
I3
sVaddon
p24
I1
sVintroduc
p25
I1
sVsuitabl
p26
I1
sVmultivalu
p27
I1
sVsourc
p28
(lp29
I0
aI1
aI2
aI3
asVstring
p30
I0
sVstraightforward
p31
I3
sVget_commodity_pric
p32
(lp33
I0
aI1
asVsubcommand
p34
(lp35
I0
aI2
asVaccount
p36
I0
sVutil
p37
I3
sVveri
p38
(lp39
I0
aI1
aI3
asVmagic
p40
(lp41
I1
aI3
asVdid
p42
I0
sVbutton
p43
I1
sVlist
p44
(lp45
I0
aI1
aI2
aI3
asVtry
p46
(lp47
I0
aI1
asVitem
p48
(lp49
I0
aI1
aI2
aI4
aI5
asVcooki
p50
I3
sVdimens
p51
I0
sVisinst
p52
I0
sVdirect
p53
I4
sV44u
p54
I1
sVsecond
p55
(lp56
I0
aI2
asVpass
p57
(lp58
I0
aI2
asVdownload
p59
(lp60
I0
aI1
aI2
aI3
asVfurther
p61
I0
sVclick
p62
I1
sVappend
p63
I0
sVeven
p64
I0
sVindex
p65
I0
sVwhat
p66
(lp67
I0
aI2
aI3
asVsub
p68
I0
sVnormalize_unit
p69
I0
sVsection
p70
(lp71
I0
aI1
asVaccess
p72
(lp73
I0
aI1
asVversion
p74
I0
sVpreciselli
p75
I0
sVnew
p76
(lp77
I0
aI1
aI2
aI3
aI4
asVmethod
p78
(lp79
I0
aI1
aI2
asVredirect
p80
I3
sVthemselv
p81
I2
sVtitl
p82
I1
sVgener
p83
(lp84
I0
aI2
aI3
asVnever
p85
I2
sVhere
p86
(lp87
I1
aI2
asVbodi
p88
(lp89
I1
aI2
asVlet
p90
(lp91
I0
aI1
aI2
aI3
asVtrunk
p92
(lp93
I0
aI1
aI2
aI3
asVpath
p94
(lp95
I1
aI2
aI3
asVineffici
p96
I0
sVmodifi
p97
I0
sVinterpret
p98
I3
sVwait
p99
I3
sVsearch
p100
(lp101
I1
aI2
asVbot
p102
(lp103
I0
aI2
asVcredit
p104
I1
sVaction
p105
(lp106
I1
aI2
asVimplement
p107
(lp108
I0
aI3
asVfirefox
p109
I1
sVapr
p110
I1
sVappli
p111
I0
sVmodul
p112
(lp113
I1
aI2
aI3
asVfilenam
p114
I2
sVsoybean
p115
(lp116
I0
aI1
asVinstal
p117
I1
sVestablish
p118
I0
sVpost
p119
I3
sVmarket
p120
(lp121
I0
aI1
asVencapsul
p122
I0
sVusd
p123
I0
sVfrom
p124
(lp125
I0
aI1
aI2
aI3
asVdescrib
p126
I2
sVmemori
p127
I3
sVvisit
p128
I0
sVtwo
p129
(lp130
I0
aI1
aI2
asVfew
p131
I0
sVlive
p132
(lp133
I0
aI2
asVcall
p134
(lp135
I2
aI3
asVrecommend
p136
I1
sVtype
p137
I1
sVuntil
p138
I3
sVmore
p139
(lp140
I0
aI1
aI2
aI3
asVhundr
p141
I0
sVmozilla
p142
I1
sVammount
p143
I0
sVenhanc
p144
I1
sVparticular
p145
I1
sVcach
p146
I3
sVmust
p147
(lp148
I0
aI2
asVnone
p149
(lp150
I0
aI2
asVretriev
p151
(lp152
I0
aI1
aI2
asVscalabl
p153
I0
sVwork
p154
(lp155
I0
aI1
aI2
asVuniqu
p156
I2
sVdev
p157
I2
sVcan
p158
(lp159
I0
aI1
aI2
aI3
aI4
asVlearn
p160
(lp161
I0
aI1
asVpurpos
p162
(lp163
I0
aI2
asVroot
p164
(lp165
I1
aI4
asVfetch
p166
I1
sVdef
p167
(lp168
I0
aI1
aI2
asVcontrol
p169
I3
sVquickstart
p170
I4
sVgive
p171
(lp172
I0
aI3
asVprocess
p173
(lp174
I0
aI2
aI3
asV0x8ae606c
p175
I0
sVindic
p176
I2
sVtag
p177
(lp178
I0
aI1
asVwant
p179
(lp180
I0
aI1
aI3
asVxmlxpathselector
p181
I1
sValwai
p182
(lp183
I0
aI1
aI2
asVcours
p184
(lp185
I0
aI2
asVend
p186
I2
sVtelnetconsol
p187
(lp188
I0
aI2
asVanoth
p189
I0
sVclassifi
p190
I1
sVwrite
p191
I2
sVhow
p192
(lp193
I0
aI1
asVinstead
p194
(lp195
I0
aI3
asVcsv
p196
I3
sVsimpl
p197
(lp198
I0
aI1
aI2
aI3
asVupdat
p199
I1
sVadaptorpip
p200
I0
sVmap
p201
I0
sVproduct
p202
I3
sVfinanc
p203
I0
sVresourc
p204
I3
sVbefor
p205
(lp206
I0
aI1
aI2
asVattent
p207
(lp208
I2
aI3
asVmai
p209
(lp210
I0
aI3
asVmultipl
p211
I1
sVindex_spx
p212
I0
sVdata
p213
(lp214
I0
aI1
aI2
aI3
asVmous
p215
I1
sVpractic
p216
I1
sVseriou
p217
I3
sVcorrespond
p218
(lp219
I1
aI2
asVelement
p220
(lp221
I1
aI2
aI3
asVissu
p222
I3
sVcallback
p223
(lp224
I2
aI3
asVenviron
p225
I3
sVenter
p226
I1
sVorder
p227
(lp228
I0
aI1
aI3
asVoper
p229
I0
sVelif
p230
I0
sVhelp
p231
(lp232
I1
aI2
aI3
asVover
p233
I1
sVbecaus
p234
(lp235
I0
aI1
aI2
asVthrough
p236
I0
sVparamet
p237
(lp238
I0
aI1
aI3
asVgroup
p239
I0
sVrender
p240
I1
sVenabled_spiders_fil
p241
I2
sVpolici
p242
I0
sVwikistart
p243
I2
sVplatform
p244
I3
sVmain
p245
(lp246
I0
aI2
asVnon
p247
I3
sVreturn
p248
(lp249
I0
aI1
aI2
aI3
asVthei
p250
(lp251
I1
aI2
asVhandl
p252
I0
sVfinanci
p253
I1
sViniti
p254
(lp255
I1
aI2
aI3
asVnov
p256
I4
sVnow
p257
I2
sVpipedict
p258
I0
sVbigger
p259
I0
sVintroduct
p260
I1
sVscrapeditem
p261
(lp262
I0
aI1
asVeventu
p263
I3
sVname
p264
(lp265
I0
aI1
aI2
aI3
asVanyth
p266
(lp267
I2
aI3
asVedit
p268
I0
sVauthent
p269
I3
sVeasili
p270
(lp271
I1
aI3
asVeach
p272
(lp273
I0
aI1
aI2
aI3
asVdebug
p274
(lp275
I0
aI2
aI3
asVfulli
p276
I3
sVunicod
p277
I0
sVstock
p278
I0
sVmean
p279
(lp280
I0
aI1
aI2
aI3
asVcompil
p281
I0
sVdomain
p282
(lp283
I0
aI1
aI2
asVreplac
p284
I0
sVcontinu
p285
(lp286
I0
aI1
aI2
aI3
asVheavi
p287
I3
sVoil
p288
(lp289
I0
aI1
asVexpect
p290
I0
sV0x8ae602c
p291
I0
sVour
p292
(lp293
I0
aI1
aI2
aI4
aI5
asVdispos
p294
I3
sVevent
p295
I3
sVscrapy_set
p296
I2
sVvariabl
p297
(lp298
I1
aI3
asVnetwork
p299
I3
sVwebservic
p300
I3
sVprofil
p301
I3
sVadapt
p302
(lp303
I0
aI4
asVprint
p304
(lp305
I0
aI1
asVcorrect
p306
(lp307
I0
aI1
asVcommon
p308
(lp309
I0
aI3
asVasp
p310
I1
sVinsid
p311
(lp312
I0
aI1
aI2
asVmyfirst
p313
I2
sVgiven
p314
(lp315
I0
aI1
aI2
aI3
asVstandard
p316
I0
sVsignif
p317
I0
sVbase
p318
(lp319
I2
aI3
asVdictionari
p320
I0
sVorg
p321
(lp322
I1
aI2
aI3
asVcare
p323
I0
sVthread
p324
I3
sVcould
p325
(lp326
I0
aI1
asVsuccess
p327
I2
sVthing
p328
I0
sVplace
p329
I3
sVlicens
p330
I1
sVfrequent
p331
I0
sVfirst
p332
(lp333
I1
aI2
aI4
aI5
asVfeed
p334
(lp335
I2
aI3
asVdirectli
p336
I1
sVcarri
p337
I2
sVonc
p338
(lp339
I2
aI3
asVqualiti
p340
I3
sVscene
p341
I2
sVinstruct
p342
I2
sValreadi
p343
I1
sVdone
p344
(lp345
I1
aI2
aI3
asVconstruct
p346
I0
sVopen
p347
(lp348
I0
aI1
aI2
asVdiffer
p349
(lp350
I0
aI1
aI2
asVscript
p351
(lp352
I2
aI3
asVassoci
p353
I1
sVinteract
p354
I1
sVsystem
p355
I1
sVleast
p356
I4
sVattach
p357
(lp358
I2
aI3
asVmaster
p359
I4
sVtermin
p360
(lp361
I0
aI2
asVscheme
p362
(lp363
I2
aI3
asVfinal
p364
(lp365
I0
aI2
asVstore
p366
(lp367
I0
aI2
asVshell
p368
(lp369
I0
aI1
asVconsol
p370
(lp371
I0
aI1
aI3
asVoption
p372
I1
sVfinancyindex
p373
I0
sVto_unicod
p374
(lp375
I0
aI1
aI2
asVadaptor
p376
(lp377
I0
aI5
aI4
asVtool
p378
(lp379
I0
aI1
aI3
asVspecifi
p380
I0
sVselector
p381
(lp382
I1
aI4
aI5
asVpart
p383
(lp384
I0
aI1
asVpars
p385
(lp386
I0
aI1
aI2
asVcrawl
p387
(lp388
I0
aI1
aI2
aI3
asVthan
p389
(lp390
I0
aI1
asVpng
p391
I1
sVkind
p392
I3
sVconveni
p393
I1
sVtarget
p394
I1
sVinstanc
p395
(lp396
I0
aI1
asVprovid
p397
I0
sVremov
p398
I0
sVstructur
p399
(lp400
I1
aI3
asVexampl
p401
(lp402
I0
aI1
aI2
asVproject
p403
(lp404
I0
aI1
aI2
aI3
aI4
asVmatter
p405
I1
sVaproxim
p406
I1
sVbrowser
p407
I1
sVadaptors_pip
p408
I0
sVxpath
p409
(lp410
I0
aI1
asVsai
p411
I2
sVran
p412
I1
sVdomain_nam
p413
(lp414
I0
aI1
aI2
asVani
p415
(lp416
I0
aI3
asVmyproject
p417
(lp418
I2
aI3
asVraw
p419
I0
sVmanner
p420
I0
sVhave
p421
(lp422
I0
aI1
aI2
aI3
asVtabl
p423
I1
sVneed
p424
(lp425
I0
aI1
aI2
asVseen
p426
I0
sVmyspid
p427
(lp428
I1
aI2
asVmovers_index_spx
p429
I0
sVimagin
p430
I0
sVengin
p431
(lp432
I2
aI3
asVbuilt
p433
I3
sVinform
p434
(lp435
I1
aI3
asVself
p436
(lp437
I0
aI1
aI2
asVnote
p438
I0
sValso
p439
(lp440
I0
aI1
aI2
aI3
asVwithout
p441
I0
sVtake
p442
I0
sVwhich
p443
(lp444
I0
aI1
aI2
asVsingl
p445
I3
sVbegin
p446
(lp447
I0
aI2
aI3
asVget_index_valu
p448
I0
sVdistribut
p449
I3
sVnormal
p450
I0
sVprice
p451
(lp452
I0
aI1
asVobject
p453
(lp454
I0
aI1
aI2
aI3
asVcompress
p455
I3
sVmost
p456
(lp457
I1
aI2
aI3
asVregular
p458
I1
sVdeploi
p459
I3
sVclass
p460
(lp461
I0
aI1
aI2
asVhomogen
p462
I0
sVdon
p463
(lp464
I2
aI3
asVurl
p465
(lp466
I0
aI1
aI2
aI3
asVlater
p467
I2
sVrequest
p468
(lp469
I1
aI2
aI3
asV400u
p470
I1
sVdoe
p471
(lp472
I1
aI3
asVinde
p473
I1
sVerror
p474
I1
sVclean
p475
I0
sVeffect
p476
I0
sVusual
p477
I1
sVfact
p478
I2
sVgold
p479
(lp480
I0
aI1
asVtext
p481
(lp482
I0
aI1
aI2
asV12u
p483
I1
sVtrivial
p484
I1
sVfind
p485
(lp486
I0
aI1
aI3
asVxml
p487
(lp488
I1
aI3
asVabsolut
p489
I3
sVonli
p490
(lp491
I0
aI1
aI2
asVexplicitli
p492
I2
sVlocat
p493
I2
sVjust
p494
(lp495
I0
aI1
aI2
asVcopyright
p496
I1
sVproportion
p497
I0
sVshould
p498
I4
sVsuppos
p499
I1
sV0x8ae616c
p500
I0
sVfolder
p501
(lp502
I2
aI3
asVlocal
p503
I1
sV_dollars_r
p504
I0
sVget
p505
(lp506
I0
aI1
aI2
aI3
aI4
asVexpress
p507
(lp508
I0
aI1
asVcompli
p509
I3
sVcannot
p510
I3
sVrequir
p511
I3
sVenabl
p512
(lp513
I0
aI1
aI2
asVorgan
p514
(lp515
I0
aI2
aI3
asVintegr
p516
I3
sVcontain
p517
(lp518
I0
aI1
aI2
aI4
asVwhere
p519
I2
sVcommod
p520
(lp521
I0
aI1
asVwiki
p522
I2
sVset
p523
(lp524
I1
aI2
aI3
asVhtmlxpathselector
p525
(lp526
I0
aI1
asVspider_modul
p527
I2
sVsee
p528
(lp529
I0
aI1
aI2
aI3
asVmandatori
p530
I2
sVresult
p531
(lp532
I1
aI3
asVrespons
p533
(lp534
I0
aI1
aI2
aI3
asVclose
p535
(lp536
I0
aI2
asVsaid
p537
I0
sVextend
p538
I1
sVpattern
p539
I1
sVsometh
p540
(lp541
I0
aI1
aI2
asVlabel
p542
I2
sVbehind
p543
I2
sVwon
p544
I1
sVbetween
p545
I3
sVcrude
p546
(lp547
I0
aI1
asVimport
p548
(lp549
I0
aI1
aI2
aI3
asVexperi
p550
I1
sVapproach
p551
(lp552
I0
aI1
aI3
asVattribut
p553
(lp554
I0
aI1
aI2
asVaccord
p555
(lp556
I0
aI1
asVparent
p557
I1
sVscreen
p558
(lp559
I0
aI1
asVjavascript
p560
I3
sVextens
p561
(lp562
I0
aI1
aI2
aI3
asVjob
p563
(lp564
I0
aI1
asVentir
p565
I1
sVipython
p566
I1
sVwti
p567
(lp568
I0
aI1
asVcome
p569
(lp570
I0
aI1
asVboth
p571
(lp572
I1
aI2
asVlast
p573
(lp574
I1
aI2
asVplugin
p575
I3
sVadmin
p576
(lp577
I2
aI3
asVregion
p578
I1
sVetc
p579
(lp580
I2
aI3
asVtutori
p581
(lp582
I1
aI3
aI4
aI5
asVstart_url
p583
(lp584
I0
aI1
aI2
asVmani
p585
I3
sVcom
p586
(lp587
I0
aI1
asVload
p588
I1
sVpre
p589
(lp590
I0
aI3
asVassur
p591
I3
sVsimpli
p592
I0
sVpoint
p593
(lp594
I0
aI1
aI3
asVinstanti
p595
(lp596
I0
aI1
aI2
asVarriv
p597
(lp598
I2
aI3
asVexploit
p599
I3
sVfeatur
p600
(lp601
I0
aI1
asVassign
p602
I0
sVbbl
p603
(lp604
I0
aI1
asVevalu
p605
I1
sVthree
p606
(lp607
I0
aI1
aI2
asVbeen
p608
(lp609
I1
aI2
asVvalu
p610
(lp611
I0
aI1
aI2
asVinterest
p612
(lp613
I0
aI1
aI2
asVbasic
p614
(lp615
I4
aI3
asVr252
p616
I1
sV210u
p617
I1
sVquickli
p618
I3
sVscrapehelp
p619
I1
sVto_decim
p620
I0
sVimag
p621
I1
sVconvert
p622
I0
sVtelnet
p623
I3
sVargument
p624
I1
sVpresent
p625
I1
sVstatist
p626
I3
sVcase
p627
I1
sVstrongli
p628
I1
sVsubsequ
p629
I2
sVlook
p630
I1
sVpackag
p631
I1
sVwebpag
p632
I0
sVenabled_spid
p633
(lp634
I1
aI2
asVdefin
p635
(lp636
I0
aI1
aI2
aI3
asVwhile
p637
I3
sVabov
p638
I1
sVcfutur
p639
(lp640
I0
aI1
asVobserv
p641
(lp642
I0
aI1
asVloop
p643
(lp644
I0
aI2
aI3
asVanytim
p645
I0
sVhelper
p646
(lp647
I0
aI3
asVxpathselectorlist
p648
I1
sVhenc
p649
I2
sVthem
p650
(lp651
I0
aI1
asVcluster
p652
I3
sVmiddlewar
p653
(lp654
I0
aI2
aI3
asVconf
p655
(lp656
I1
aI2
asVtediou
p657
I1
sVseem
p658
I3
sVsever
p659
I1
sVclean_numb
p660
I0
sVilustr
p661
I1
sVdevelop
p662
(lp663
I1
aI3
asVperform
p664
(lp665
I0
aI2
aI3
asVmake
p666
I1
sVsame
p667
(lp668
I1
aI2
asVpython
p669
(lp670
I0
aI1
aI3
asVhtml
p671
(lp672
I0
aI1
aI3
asVsplit
p673
(lp674
I0
aI2
asVpai
p675
I2
sVdocument
p676
(lp677
I1
aI4
asVcomplet
p678
I4
sVfinish
p679
(lp680
I0
aI2
asVhttp
p681
(lp682
I0
aI1
aI2
aI3
asVw3school
p683
I1
sVsomeon
p684
I1
sVxpathselector
p685
I1
sVdriven
p686
I3
sVctl
p687
(lp688
I0
aI1
aI2
asVuser
p689
I0
sVbloomberg
p690
(lp691
I0
aI1
asVchang
p692
(lp693
I0
aI2
asVtechniqu
p694
I0
sVtask
p695
I3
sVinconsist
p696
I0
sVmarkup
p697
I1
sVwell
p698
I1
sVclient
p699
I1
sVcommand
p700
(lp701
I0
aI1
aI2
aI3
asVthi
p702
(lp703
I0
aI1
aI2
aI3
aI4
asVfilesystem
p704
I2
sVentiti
p705
I0
sVmodel
p706
(lp707
I0
aI1
aI2
aI3
asVtast
p708
I2
sVsibl
p709
(lp710
I0
aI1
asVleft
p711
I3
sVidentifi
p712
I2
sVstyle5
p713
I1
sVamong
p714
I1
sVwebconsol
p715
(lp716
I0
aI2
asV__path__
p717
I2
sVselect
p718
I1
sVheavili
p719
I3
sVflavor
p720
I1
sVlanguag
p721
(lp722
I1
aI3
asVweb
p723
(lp724
I0
aI1
aI3
asVadd
p725
(lp726
I0
aI1
asVother
p727
I0
sVsave
p728
(lp729
I0
aI1
aI2
asVmatch
p730
I1
sVbin
p731
I3
sVapplic
p732
(lp733
I2
aI3
asVbranch
p734
I2
sVread
p735
(lp736
I1
aI2
asVbig
p737
I1
sVpiec
p738
(lp739
I0
aI1
asVwere
p740
I1
sVmon
p741
I4
sVasoci
p742
I2
sVresid
p743
(lp744
I2
aI3
asVlike
p745
(lp746
I0
aI1
aI2
aI4
asVspecif
p747
(lp748
I1
aI3
asVsignal
p749
I3
sVinteg
p750
I0
sVoutput
p751
(lp752
I0
aI1
aI2
asVmanag
p753
(lp754
I1
aI3
asVcrawler
p755
(lp756
I0
aI1
aI2
asVpoor
p757
I0
sVwww
p758
(lp759
I0
aI1
asVright
p760
I1
sVoften
p761
I0
sVsome
p762
(lp763
I0
aI1
asVpipelin
p764
(lp765
I0
aI2
aI3
asVsampl
p766
(lp767
I1
aI2
asVtoctre
p768
I4
sVlibrari
p769
I1
sVsubclass
p770
I2
sVretri
p771
I3
sVlarg
p772
I1
sVunit
p773
I0
sVcondit
p774
I2
sVcore
p775
I3
sVpreviou
p776
I0
sVrun
p777
(lp778
I0
aI1
aI2
aI3
asVinspect
p779
I1
sVusag
p780
I3
sVstep
p781
I2
sVrepositori
p782
I3
sVfound
p783
(lp784
I1
aI3
asVreferr
p785
I2
sVhttppagegett
p786
I1
sVabout
p787
(lp788
I1
aI3
asVactual
p789
(lp790
I1
aI2
aI3
asVcolumn
p791
I1
sVpage
p792
(lp793
I0
aI1
aI2
asVblock
p794
I3
sVown
p795
(lp796
I0
aI1
asVsoi
p797
I1
sVpythonpath
p798
I3
sVfloat
p799
I0
sVstrip
p800
I0
sVyour
p801
(lp802
I0
aI1
aI3
aI4
asVspan
p803
(lp804
I0
aI1
asVlog
p805
(lp806
I0
aI1
aI2
aI3
asVwai
p807
(lp808
I0
aI1
asVexecut
p809
(lp810
I2
aI3
asVsupport
p811
I1
sVwhy
p812
(lp813
I2
aI3
asVavail
p814
I1
sVstart
p815
(lp816
I0
aI4
aI2
aI3
asVinclud
p817
(lp818
I0
aI3
asVlot
p819
(lp820
I0
aI3
asVpipe
p821
I0
sVbloombergspid
p822
I0
sV750u
p823
I1
sVfunction
p824
(lp825
I0
aI1
aI2
aI3
asVhead
p826
I1
sVspider
p827
(lp828
I0
aI1
aI2
aI3
aI4
aI5
asVlink
p829
I0
sVstartproject
p830
I3
sVline
p831
(lp832
I0
aI1
aI2
aI3
asVinfo
p833
(lp834
I0
aI2
aI3
asVmade
p835
I2
sVtab
p836
I1
sVdefault
p837
(lp838
I1
aI2
asVdisplai
p839
I0
sVasynchron
p840
I3
sVbasespid
p841
(lp842
I0
aI1
aI2
asVthose
p843
I2
sVsite
p844
I0
sVhighlight
p845
I1
sVadopt
p846
I1
sVcreat
p847
(lp848
I0
aI4
aI2
aI3
asVcertain
p849
I0
sVparser
p850
I3
sVrepres
p851
I1
sVtwist
p852
I3
sVfirebug
p853
I1
sVfile
p854
(lp855
I0
aI1
aI2
aI3
aI4
asVcheck
p856
I2
sVagain
p857
I0
sVscrapi
p858
(lp859
I0
aI1
aI2
aI3
aI4
asVextract
p860
(lp861
I0
aI1
asVwhen
p862
(lp863
I0
aI2
aI3
asVdetail
p864
(lp865
I0
aI1
asVscrape
p866
(lp867
I0
aI1
aI3
asVvalid
p868
I0
sVfutur
p869
(lp870
I0
aI1
asVrememb
p871
(lp872
I0
aI2
asVtest
p873
I3
sVyou
p874
(lp875
I0
aI1
aI2
aI3
aI4
asVout
p876
(lp877
I0
aI1
aI2
asVthousand
p878
I0
sVnice
p879
I0
sVnode
p880
I1
sVrepeat
p881
I0
sVintend
p882
I0
sVsymbol
p883
I0
sVmeaning
p884
I1
sVintens
p885
I3
sVsvn
p886
I3
sVreceiv
p887
(lp888
I0
aI1
asVsphinx
p889
I4
sVp500
p890
I0
sVtime
p891
(lp892
I0
aI2
asVcpu
p893
I3
ssS'titles'
p894
(lp895
VItems and Adaptors
p896
aVSelectors
p897
aVOur first spider
p898
aVBasics
p899
aVScrapy&#8217;s documentation
p900
aVTutorial
p901
asS'modules'
p902
(dp903
sS'descrefs'
p904
(dp905
sS'filenames'
p906
(lp907
S'tutorial/tutorial3'
p908
aS'tutorial/tutorial2'
p909
aS'tutorial/tutorial1'
p910
aS'basics'
p911
aS'index'
p912
aS'tutorial/index'
p913
as.