(dp1
S'desctypes'
p2
(dp3
sS'terms'
p4
(dp5
Vpluggabl
p6
I3
sVconcept
p7
I3
sVforget
p8
I0
sVdollar
p9
I0
sVall
p10
(lp11
I0
aI1
aI2
aI3
asVcode
p12
(lp13
I0
aI1
aI2
aI3
asVfollow
p14
(lp15
I0
aI1
asVrow
p16
I1
sVprofil
p17
I3
sVdepend
p18
I0
sVdecim
p19
I0
sVspecif
p20
(lp21
I1
aI3
asVprogram
p22
I3
sVpresent
p23
I1
sVunder
p24
I3
sVaddon
p25
I1
sVintroduc
p26
I1
sVsuitabl
p27
I1
sVmultivalu
p28
I1
sVsourc
p29
(lp30
I0
aI1
aI2
aI3
asVstring
p31
I0
sVstraightforward
p32
I3
sVget_commodity_pric
p33
(lp34
I0
aI1
asVsubcommand
p35
(lp36
I0
aI2
asVaccount
p37
I0
sVutil
p38
I3
sVveri
p39
(lp40
I0
aI1
aI3
asVmagic
p41
(lp42
I1
aI3
asVdid
p43
I0
sVbutton
p44
I1
sVlist
p45
(lp46
I0
aI1
aI2
aI3
asVtry
p47
(lp48
I0
aI1
asVitem
p49
(lp50
I0
aI1
aI2
aI4
aI5
asVsignif
p51
I0
sVdimens
p52
I0
sVisinst
p53
I0
sVdirect
p54
I5
sV44u
p55
I1
sVsecond
p56
(lp57
I0
aI2
asVpass
p58
(lp59
I0
aI2
asVdownload
p60
(lp61
I0
aI1
aI2
aI3
asVfurther
p62
I0
sVclick
p63
I1
sVappend
p64
I0
sVeven
p65
I0
sVindex
p66
I0
sVwhat
p67
(lp68
I0
aI2
aI3
asVsub
p69
I0
sVnormalize_unit
p70
I0
sVsection
p71
(lp72
I0
aI1
asVaccess
p73
(lp74
I0
aI1
asVversion
p75
I0
sVpreciselli
p76
I0
sVnew
p77
(lp78
I0
aI1
aI2
aI3
aI5
asVmethod
p79
(lp80
I0
aI1
aI2
asVxml
p81
(lp82
I1
aI3
asVthemselv
p83
I2
sVgener
p84
(lp85
I0
aI2
aI3
asVnever
p86
I2
sVhere
p87
(lp88
I1
aI2
asVbodi
p89
(lp90
I1
aI2
asVlet
p91
(lp92
I0
aI1
aI2
aI3
asVtrunk
p93
(lp94
I0
aI1
aI2
aI3
asVpath
p95
(lp96
I1
aI2
aI3
asVstandard
p97
I0
sVmodifi
p98
I0
sVinterpret
p99
I3
sVwait
p100
I3
sVsearch
p101
(lp102
I1
aI2
asVbot
p103
(lp104
I0
aI2
asVstep
p105
I2
sVadopt
p106
I1
sVcredit
p107
I1
sVaction
p108
(lp109
I1
aI2
asVimplement
p110
(lp111
I0
aI3
asVfirefox
p112
I1
sVapr
p113
I1
sVappli
p114
I0
sVmodul
p115
(lp116
I1
aI2
aI3
asVfilenam
p117
I2
sVsoybean
p118
(lp119
I0
aI1
asVinstal
p120
I1
sVestablish
p121
I0
sVreferr
p122
I2
sVmiddlewar
p123
(lp124
I0
aI2
aI3
asVencapsul
p125
I0
sVusd
p126
I0
sVfrom
p127
(lp128
I0
aI1
aI2
aI3
asVdescrib
p129
I2
sVmemori
p130
I3
sVvisit
p131
I0
sVtwo
p132
(lp133
I0
aI1
aI2
asVfew
p134
I0
sVlive
p135
(lp136
I0
aI2
asVcall
p137
(lp138
I2
aI3
asVrecommend
p139
I1
sVtype
p140
I1
sVuntil
p141
I3
sVmore
p142
(lp143
I0
aI1
aI2
aI3
asVhundr
p144
I0
sVmozilla
p145
I1
sVammount
p146
I0
sVenhanc
p147
I1
sVparticular
p148
I1
sVcach
p149
I3
sVmust
p150
(lp151
I0
aI2
asVnone
p152
(lp153
I0
aI2
asVretriev
p154
(lp155
I0
aI1
aI2
asVscalabl
p156
I0
sVwork
p157
(lp158
I0
aI1
aI2
asVuniqu
p159
I2
sVdev
p160
I2
sVcan
p161
(lp162
I0
aI1
aI2
aI3
aI5
asVlearn
p163
(lp164
I0
aI1
asVpurpos
p165
(lp166
I0
aI2
asVroot
p167
(lp168
I1
aI5
asVfetch
p169
I1
sVdef
p170
(lp171
I0
aI1
aI2
asVcontrol
p172
I3
sVquickstart
p173
I5
sVgive
p174
(lp175
I0
aI3
asVprocess
p176
(lp177
I0
aI2
aI3
asV0x8ae606c
p178
I0
sVindic
p179
I2
sVtag
p180
(lp181
I0
aI1
asVwant
p182
(lp183
I0
aI1
aI3
asVxmlxpathselector
p184
I1
sValwai
p185
(lp186
I0
aI1
aI2
asVcours
p187
(lp188
I0
aI2
asVend
p189
I2
sVtelnetconsol
p190
(lp191
I0
aI2
asVanoth
p192
I0
sVclassifi
p193
I1
sVwrite
p194
I2
sVhow
p195
(lp196
I0
aI1
asVinstead
p197
(lp198
I0
aI3
asVcsv
p199
I3
sVsimpl
p200
(lp201
I0
aI1
aI2
aI3
asVstock
p202
I0
sVadaptorpip
p203
I0
sVmap
p204
I0
sVproduct
p205
I3
sVexpress
p206
(lp207
I0
aI1
asVresourc
p208
I3
sVbefor
p209
(lp210
I0
aI1
aI2
asVattent
p211
(lp212
I2
aI3
asVmai
p213
(lp214
I0
aI3
asVmultipl
p215
I1
sVindex_spx
p216
I0
sVassoci
p217
I1
sVmous
p218
I1
sVpractic
p219
I1
sVread
p220
(lp221
I1
aI2
asVseriou
p222
I3
sVcorrespond
p223
(lp224
I1
aI2
asVelement
p225
(lp226
I1
aI2
aI3
asVissu
p227
I3
sVinform
p228
(lp229
I1
aI3
asVenviron
p230
I3
sVenter
p231
I1
sVorder
p232
(lp233
I0
aI1
aI3
asVoper
p234
I0
sVelif
p235
I0
sVhelp
p236
(lp237
I1
aI2
aI3
asVover
p238
I1
sVbecaus
p239
(lp240
I0
aI1
aI2
asVthrough
p241
I0
sVparamet
p242
(lp243
I0
aI1
aI3
asVcfutur
p244
(lp245
I0
aI1
asVgroup
p246
I0
sVrender
p247
I1
sVenabled_spiders_fil
p248
I2
sVpolici
p249
I0
sVwikistart
p250
I2
sVplatform
p251
I3
sVhtml
p252
(lp253
I0
aI1
aI3
asVmain
p254
(lp255
I0
aI2
asVnon
p256
I3
sVreturn
p257
(lp258
I0
aI1
aI2
aI3
asVthei
p259
(lp260
I1
aI2
asVhandl
p261
I0
sVfinanci
p262
I1
sViniti
p263
(lp264
I1
aI2
aI3
asVnov
p265
I5
sVnow
p266
I2
sVpipedict
p267
I0
sVbigger
p268
I0
sVintroduct
p269
I1
sVscrapeditem
p270
(lp271
I0
aI1
asVdocument
p272
(lp273
I1
aI5
asVname
p274
(lp275
I0
aI1
aI2
aI3
asVanyth
p276
(lp277
I2
aI3
asVedit
p278
I0
sVauthent
p279
I3
sVeasili
p280
(lp281
I1
aI3
asVeach
p282
(lp283
I0
aI1
aI2
aI3
asVdebug
p284
(lp285
I0
aI2
aI3
asVfulli
p286
I3
sVunicod
p287
I0
sVupdat
p288
I1
sVmean
p289
(lp290
I0
aI1
aI2
aI3
asVcompil
p291
I0
sVdomain
p292
(lp293
I0
aI1
aI2
asVreplac
p294
I0
sVcontinu
p295
(lp296
I0
aI1
aI2
aI3
asVheavi
p297
I3
sVfinish
p298
(lp299
I0
aI2
asVexpect
p300
I0
sV0x8ae602c
p301
I0
sVour
p302
(lp303
I0
aI1
aI2
aI4
aI5
asVdispos
p304
I3
sVevent
p305
I3
sVscrapy_set
p306
I2
sVvariabl
p307
(lp308
I1
aI3
asVnetwork
p309
I3
sVwebservic
p310
I3
sVcontent
p311
(lp312
I1
aI2
aI5
asVadapt
p313
(lp314
I0
aI5
asVprint
p315
(lp316
I0
aI1
asVcorrect
p317
(lp318
I0
aI1
asVintegr
p319
I3
sVasp
p320
I1
sVinsid
p321
(lp322
I0
aI1
aI2
asVmyfirst
p323
I2
sVgiven
p324
(lp325
I0
aI1
aI2
aI3
asVineffici
p326
I0
sVcooki
p327
I3
sVbase
p328
(lp329
I2
aI3
asVdictionari
p330
I0
sVorg
p331
(lp332
I1
aI2
aI3
asVcare
p333
I0
sVthread
p334
I3
sVcould
p335
(lp336
I0
aI1
asVthing
p337
I0
sVplace
p338
I3
sVlicens
p339
I1
sVfrequent
p340
I0
sVfirst
p341
(lp342
I1
aI2
aI4
aI5
asVfeed
p343
(lp344
I2
aI3
asVdirectli
p345
I1
sVcarri
p346
I2
sVonc
p347
(lp348
I2
aI3
asVqualiti
p349
I3
sVscene
p350
I2
sVinstruct
p351
I2
sValreadi
p352
I1
sVdone
p353
(lp354
I1
aI2
aI3
asVconstruct
p355
I0
sVopen
p356
(lp357
I0
aI1
aI2
asVdiffer
p358
(lp359
I0
aI1
aI2
asVscript
p360
(lp361
I2
aI3
asVdata
p362
(lp363
I0
aI1
aI2
aI3
asVinteract
p364
I1
sVsystem
p365
I1
sVleast
p366
I5
sVattach
p367
(lp368
I2
aI3
asVmaster
p369
I5
sVtermin
p370
(lp371
I0
aI2
asVscheme
p372
(lp373
I2
aI3
asVfinal
p374
(lp375
I0
aI2
asVstore
p376
(lp377
I0
aI2
asVshell
p378
(lp379
I0
aI1
asVconsol
p380
(lp381
I0
aI1
aI3
asVoption
p382
I1
sVfinancyindex
p383
I0
sVto_unicod
p384
(lp385
I0
aI1
aI2
asVadaptor
p386
(lp387
I0
aI5
aI4
asVtool
p388
(lp389
I0
aI1
aI3
asVspecifi
p390
I0
sVselector
p391
(lp392
I1
aI4
aI5
asVpart
p393
(lp394
I0
aI1
asVpars
p395
(lp396
I0
aI1
aI2
asVcrawl
p397
(lp398
I0
aI1
aI2
aI3
asVthan
p399
(lp400
I0
aI1
asVpng
p401
I1
sVkind
p402
I3
sVconveni
p403
I1
sVtarget
p404
I1
sVprovid
p405
I0
sVremov
p406
I0
sVstructur
p407
(lp408
I1
aI3
asVexampl
p409
(lp410
I0
aI1
aI2
asVproject
p411
(lp412
I0
aI1
aI2
aI3
aI5
asVmatter
p413
I1
sVaproxim
p414
I1
sVsomeon
p415
I1
sVbrowser
p416
I1
sVadaptors_pip
p417
I0
sVfunction
p418
(lp419
I0
aI1
aI2
aI3
asVsai
p420
I2
sVran
p421
I1
sVdomain_nam
p422
(lp423
I0
aI1
aI2
asVani
p424
(lp425
I0
aI3
asVmyproject
p426
(lp427
I2
aI3
asVraw
p428
I0
sVmanner
p429
I0
sVhave
p430
(lp431
I0
aI1
aI2
aI3
asVtabl
p432
I1
sVneed
p433
(lp434
I0
aI1
aI2
asVseen
p435
I0
sVmyspid
p436
(lp437
I1
aI2
asVmovers_index_spx
p438
I0
sVimagin
p439
I0
sVengin
p440
(lp441
I2
aI3
asVbuilt
p442
I3
sVcallback
p443
(lp444
I2
aI3
asVself
p445
(lp446
I0
aI1
aI2
asVnote
p447
I0
sValso
p448
(lp449
I0
aI1
aI2
aI3
asVwithout
p450
I0
sVtake
p451
I0
sVwhich
p452
(lp453
I0
aI1
aI2
asVsingl
p454
I3
sVbegin
p455
(lp456
I0
aI2
aI3
asVget_index_valu
p457
I0
sVdistribut
p458
I3
sVnormal
p459
I0
sVprice
p460
(lp461
I0
aI1
asVobject
p462
(lp463
I0
aI1
aI2
aI3
asVcompress
p464
I3
sVmost
p465
(lp466
I1
aI2
aI3
asVregular
p467
I1
sVdeploi
p468
I3
sVclass
p469
(lp470
I0
aI1
aI2
asVhomogen
p471
I0
sVdon
p472
(lp473
I2
aI3
asVurl
p474
(lp475
I0
aI1
aI2
aI3
asVlater
p476
I2
sVrequest
p477
(lp478
I1
aI2
aI3
asV400u
p479
I1
sVdoe
p480
(lp481
I1
aI3
asVinde
p482
I1
sVclean
p483
I0
sVleft
p484
I3
sVfact
p485
I2
sVgold
p486
(lp487
I0
aI1
asVtext
p488
(lp489
I0
aI1
aI2
asV12u
p490
I1
sVtrivial
p491
I1
sVfind
p492
(lp493
I0
aI1
aI3
asVredirect
p494
I3
sVabsolut
p495
I3
sVonli
p496
(lp497
I0
aI1
aI2
asVexplicitli
p498
I2
sVlocat
p499
I2
sVstyle5
p500
I1
sVcopyright
p501
I1
sVproportion
p502
I0
sVshould
p503
I5
sVsuppos
p504
I1
sVwebconsol
p505
(lp506
I0
aI2
asVfolder
p507
(lp508
I2
aI3
asVlocal
p509
I1
sV_dollars_r
p510
I0
sVget
p511
(lp512
I0
aI1
aI2
aI3
aI5
asVfinanc
p513
I0
sVcompli
p514
I3
sVcannot
p515
I3
sVrequir
p516
I3
sVextract
p517
(lp518
I0
aI1
asVenabl
p519
(lp520
I0
aI1
aI2
asVorgan
p521
(lp522
I0
aI2
aI3
asVcommon
p523
(lp524
I0
aI3
asVcontain
p525
(lp526
I0
aI1
aI2
aI5
asVwhere
p527
I2
sVcommod
p528
(lp529
I0
aI1
asVwiki
p530
I2
sVset
p531
(lp532
I1
aI2
aI3
asVhtmlxpathselector
p533
(lp534
I0
aI1
asVspider_modul
p535
I2
sVsee
p536
(lp537
I0
aI1
aI2
aI3
asVmandatori
p538
I2
sVresult
p539
(lp540
I1
aI3
asVrespons
p541
(lp542
I0
aI1
aI2
aI3
asVclose
p543
(lp544
I0
aI2
asVsaid
p545
I0
sVparent
p546
I1
sVpattern
p547
I1
sVsometh
p548
(lp549
I0
aI1
aI2
asVlabel
p550
I2
sVbehind
p551
I2
sVwon
p552
I1
sVbetween
p553
I3
sVcrude
p554
(lp555
I0
aI1
asVimport
p556
(lp557
I0
aI1
aI2
aI3
asVexperi
p558
I1
sVapproach
p559
(lp560
I0
aI1
aI3
asVattribut
p561
(lp562
I0
aI1
aI2
asVaccord
p563
(lp564
I0
aI1
asVextend
p565
I1
sVscreen
p566
(lp567
I0
aI1
asVjavascript
p568
I3
sVextens
p569
(lp570
I0
aI1
aI2
aI3
asVjob
p571
(lp572
I0
aI1
asVentir
p573
I1
sVipython
p574
I1
sVwti
p575
(lp576
I0
aI1
asVcome
p577
(lp578
I0
aI1
asVboth
p579
(lp580
I1
aI2
asVlast
p581
(lp582
I1
aI2
asVplugin
p583
I3
sVadmin
p584
(lp585
I2
aI3
asVregion
p586
I1
sVetc
p587
(lp588
I2
aI3
asVinstanc
p589
(lp590
I0
aI1
asVstart_url
p591
(lp592
I0
aI1
aI2
asVmani
p593
I3
sVcom
p594
(lp595
I0
aI1
asVload
p596
I1
sVpre
p597
(lp598
I0
aI3
asVassur
p599
I3
sVsimpli
p600
I0
sVpoint
p601
(lp602
I0
aI1
aI3
asVinstanti
p603
(lp604
I0
aI1
aI2
asVarriv
p605
(lp606
I2
aI3
asVexploit
p607
I3
sVassign
p608
I0
sVbbl
p609
(lp610
I0
aI1
asVcreat
p611
(lp612
I0
aI5
aI2
aI3
asVthree
p613
(lp614
I0
aI1
aI2
asVbeen
p615
(lp616
I1
aI2
asVvalu
p617
(lp618
I0
aI1
aI2
asVinterest
p619
(lp620
I0
aI1
aI2
asVbasic
p621
(lp622
I5
aI3
asVr252
p623
I1
sV210u
p624
I1
sVquickli
p625
I3
sVscrapehelp
p626
I1
sVto_decim
p627
I0
sVimag
p628
I1
sVconvert
p629
I0
sVtelnet
p630
I3
sVargument
p631
I1
sVhasattr
p632
I0
sVstatist
p633
I3
sVcase
p634
I1
sVtwist
p635
I3
sVsave
p636
(lp637
I0
aI1
aI2
asVlook
p638
I1
sVpackag
p639
I1
sVenabled_spid
p640
(lp641
I1
aI2
asVdefin
p642
(lp643
I0
aI1
aI2
aI3
asVwhile
p644
I3
sVabov
p645
I1
sVerror
p646
I1
sVobserv
p647
(lp648
I0
aI1
asVloop
p649
(lp650
I0
aI2
aI3
asVanytim
p651
I0
sVhelper
p652
(lp653
I0
aI3
asVxpathselectorlist
p654
I1
sVhenc
p655
I2
sVthem
p656
(lp657
I0
aI1
asVcluster
p658
I3
sVconf
p659
(lp660
I1
aI2
asVtediou
p661
I1
sVseem
p662
I3
sVsever
p663
I1
sVclean_numb
p664
I0
sVilustr
p665
I1
sVdevelop
p666
(lp667
I1
aI3
asVperform
p668
(lp669
I0
aI2
aI3
asVmake
p670
I1
sVsame
p671
(lp672
I1
aI2
asVpython
p673
(lp674
I0
aI1
aI3
asVtutori
p675
(lp676
I1
aI4
aI3
aI5
asVsplit
p677
(lp678
I0
aI2
asVpai
p679
I2
sVeventu
p680
I3
sVcomplet
p681
I5
sVoil
p682
(lp683
I0
aI1
asVhttp
p684
(lp685
I0
aI1
aI2
aI3
asVagain
p686
I0
sVw3school
p687
I1
sVeffect
p688
I0
sVxpathselector
p689
I1
sVdriven
p690
I3
sVctl
p691
(lp692
I0
aI1
aI2
asVuser
p693
I0
sVbloomberg
p694
(lp695
I0
aI1
asVchang
p696
(lp697
I0
aI2
asVtechniqu
p698
I0
sVtask
p699
I3
sVinconsist
p700
I0
sVmarkup
p701
I1
sVwell
p702
I1
sVclient
p703
I1
sVcommand
p704
(lp705
I0
aI1
aI2
aI3
asVthi
p706
(lp707
I0
aI1
aI2
aI3
aI5
asVfilesystem
p708
I2
sVentiti
p709
I0
sVmodel
p710
(lp711
I0
aI1
aI2
aI3
asVtast
p712
I2
sVsibl
p713
(lp714
I0
aI1
asVusual
p715
I1
sVidentifi
p716
I2
sVjust
p717
(lp718
I0
aI1
aI2
asVamong
p719
I1
sV0x8ae616c
p720
I0
sV__path__
p721
I2
sVselect
p722
I1
sVheavili
p723
I3
sVflavor
p724
I1
sVlanguag
p725
(lp726
I1
aI3
asVweb
p727
(lp728
I0
aI1
aI3
asVadd
p729
(lp730
I0
aI1
asVvalid
p731
I0
sVsubsequ
p732
I2
sVmatch
p733
I1
sVbin
p734
I3
sVapplic
p735
(lp736
I2
aI3
asVrememb
p737
(lp738
I0
aI2
asVwebpag
p739
I0
sVbig
p740
I1
sVpiec
p741
(lp742
I0
aI1
asVwere
p743
I1
sVmon
p744
I5
sVasoci
p745
I2
sVresid
p746
(lp747
I2
aI3
asVlike
p748
(lp749
I0
aI1
aI2
aI5
asVsuccess
p750
I2
sVsignal
p751
I3
sVinteg
p752
I0
sVoutput
p753
(lp754
I0
aI1
aI2
asVmanag
p755
(lp756
I1
aI3
asVcrawler
p757
(lp758
I0
aI1
aI2
asVnode
p759
I1
sVwww
p760
(lp761
I0
aI1
asVright
p762
I1
sVoften
p763
I0
sVsome
p764
(lp765
I0
aI1
asVpipelin
p766
(lp767
I0
aI2
aI3
asVsampl
p768
(lp769
I1
aI2
asVtoctre
p770
I5
sVlibrari
p771
I1
sVsubclass
p772
I2
sVretri
p773
I3
sVlarg
p774
I1
sVunit
p775
I0
sVcondit
p776
I2
sVcore
p777
I3
sVpreviou
p778
I0
sVrun
p779
(lp780
I0
aI1
aI2
aI3
asVinspect
p781
I1
sVusag
p782
I3
sVmarket
p783
(lp784
I0
aI1
asVrepositori
p785
I3
sVfound
p786
(lp787
I1
aI3
asVpost
p788
I3
sVhttppagegett
p789
I1
sVabout
p790
(lp791
I1
aI3
asVactual
p792
(lp793
I1
aI2
aI3
asVcolumn
p794
I1
sVpage
p795
(lp796
I0
aI1
aI2
asVblock
p797
I3
sVown
p798
(lp799
I0
aI1
asVsoi
p800
I1
sVpythonpath
p801
I3
sVfloat
p802
I0
sVstrip
p803
I0
sVyour
p804
(lp805
I0
aI1
aI3
aI5
asVspan
p806
(lp807
I0
aI1
asVlog
p808
(lp809
I0
aI1
aI2
aI3
asVwai
p810
(lp811
I0
aI1
asVexecut
p812
(lp813
I2
aI3
asVsupport
p814
I1
sVwhy
p815
(lp816
I2
aI3
asVavail
p817
I1
sVstart
p818
(lp819
I0
aI5
aI2
aI3
asVinclud
p820
(lp821
I0
aI3
asVlot
p822
(lp823
I0
aI3
asVbloombergspid
p824
I0
sV750u
p825
I1
sVxpath
p826
(lp827
I0
aI1
asVhead
p828
I1
sVspider
p829
(lp830
I0
aI1
aI2
aI3
aI4
aI5
asVlink
p831
I0
sVstartproject
p832
I3
sVline
p833
(lp834
I0
aI1
aI2
aI3
asVinfo
p835
(lp836
I0
aI2
aI3
asVmade
p837
I2
sVtab
p838
I1
sVdefault
p839
(lp840
I1
aI2
asVdisplai
p841
I0
sVasynchron
p842
I3
sVbasespid
p843
(lp844
I0
aI1
aI2
asVthose
p845
I2
sVsite
p846
I0
sVhighlight
p847
I1
sVfeatur
p848
(lp849
I0
aI1
asVevalu
p850
I1
sVcertain
p851
I0
sVparser
p852
I3
sVrepres
p853
I1
sVstrongli
p854
I1
sVfirebug
p855
I1
sVfile
p856
(lp857
I0
aI1
aI2
aI3
aI5
asVcheck
p858
I2
sVpipe
p859
I0
sVscrapi
p860
(lp861
I0
aI1
aI2
aI3
aI5
asVtitl
p862
I1
sVwhen
p863
(lp864
I0
aI2
aI3
asVdetail
p865
(lp866
I0
aI1
asVscrape
p867
(lp868
I0
aI1
aI3
asVother
p869
I0
sVfutur
p870
(lp871
I0
aI1
asVbranch
p872
I2
sVtest
p873
I3
sVyou
p874
(lp875
I0
aI1
aI2
aI3
aI5
asVout
p876
(lp877
I0
aI1
aI2
asVthousand
p878
I0
sVnice
p879
I0
sVpoor
p880
I0
sVrepeat
p881
I0
sVintend
p882
I0
sVsymbol
p883
I0
sVmeaning
p884
I1
sVintens
p885
I3
sVsvn
p886
I3
sVreceiv
p887
(lp888
I0
aI1
asVsphinx
p889
I5
sVp500
p890
I0
sVtime
p891
(lp892
I0
aI2
asVcpu
p893
I3
ssS'titles'
p894
(lp895
VItems and Adaptors
p896
aVSelectors
p897
aVOur first spider
p898
aVBasics
p899
aVTutorial
p900
aVScrapy&#8217;s documentation
p901
asS'modules'
p902
(dp903
sS'descrefs'
p904
(dp905
sS'filenames'
p906
(lp907
S'tutorial/tutorial3'
p908
aS'tutorial/tutorial2'
p909
aS'tutorial/tutorial1'
p910
aS'basics'
p911
aS'tutorial/index'
p912
aS'index'
p913
as.